; Function Attrs: mustprogress uwtable
define noundef nonnull ptr @_ZN7rocksdb16NewErrorIteratorERKNS_6StatusE(ptr noundef nonnull readonly align 8 captures(none) dereferenceable(16) %0) local_unnamed_addr #1 personality ptr @__gxx_personality_v0 {
  %2 = tail call noalias noundef nonnull dereferenceable(56) ptr @_Znwm(i64 noundef 56) #12
  invoke fastcc void @_ZN7rocksdb12_GLOBAL__N_113EmptyIteratorC2ERKNS_6StatusE(ptr noundef nonnull align 8 dereferenceable(56) %2, ptr noundef nonnull align 8 dereferenceable(16) %0)
          to label %3 unwind label %4

3:                                                ; preds = %1
  ret ptr %2

4:                                                ; preds = %1
  %5 = landingpad { ptr, i32 }
          cleanup
  tail call void @_ZdlPvm(ptr noundef nonnull %2, i64 noundef 56) #13
  resume { ptr, i32 } %5
}